target datalayout = "e-m:e-p270:32:32-p271:32:32-p272:64:64-i64:64-i128:128-f80:128-n8:16:32:64-S128"
target triple = "x86_64-pc-linux-gnu"

%struct.strbuf = type { i64, i64, ptr }

@__const.find_name_gnu.name = private unnamed_addr constant %struct.strbuf { i64 0, i64 0, ptr @strbuf_slopbuf }, align 8

; Function Attrs: nounwind uwtable
define internal ptr @squash_slash(ptr noundef %0) #0 {
  %2 = alloca ptr, align 8
  %3 = alloca ptr, align 8
  %4 = alloca i32, align 4
  %5 = alloca i32, align 4
  %6 = alloca i32, align 4
  store ptr %0, ptr %3, align 8, !tbaa !11
  call void @llvm.lifetime.start.p0(i64 4, ptr %4) #12
  store i32 0, ptr %4, align 4, !tbaa !39
  call void @llvm.lifetime.start.p0(i64 4, ptr %5) #12
  store i32 0, ptr %5, align 4, !tbaa !39
  %7 = load ptr, ptr %3, align 8, !tbaa !11
  %8 = icmp ne ptr %7, null
  br i1 %8, label %10, label %9

9:                                                ; preds = %1
  store ptr null, ptr %2, align 8
  store i32 1, ptr %6, align 4
  br label %52

10:                                               ; preds = %1
  br label %11

11:                                               ; preds = %45, %10
  %12 = load ptr, ptr %3, align 8, !tbaa !11
  %13 = load i32, ptr %4, align 4, !tbaa !39
  %14 = sext i32 %13 to i64
  %15 = getelementptr inbounds i8, ptr %12, i64 %14
  %16 = load i8, ptr %15, align 1, !tbaa !57
  %17 = icmp ne i8 %16, 0
  br i1 %17, label %18, label %46

18:                                               ; preds = %11
  %19 = load ptr, ptr %3, align 8, !tbaa !11
  %20 = load i32, ptr %4, align 4, !tbaa !39
  %21 = add nsw i32 %20, 1
  store i32 %21, ptr %4, align 4, !tbaa !39
  %22 = sext i32 %20 to i64
  %23 = getelementptr inbounds i8, ptr %19, i64 %22
  %24 = load i8, ptr %23, align 1, !tbaa !57
  %25 = load ptr, ptr %3, align 8, !tbaa !11
  %26 = load i32, ptr %5, align 4, !tbaa !39
  %27 = add nsw i32 %26, 1
  store i32 %27, ptr %5, align 4, !tbaa !39
  %28 = sext i32 %26 to i64
  %29 = getelementptr inbounds i8, ptr %25, i64 %28
  store i8 %24, ptr %29, align 1, !tbaa !57
  %30 = sext i8 %24 to i32
  %31 = icmp eq i32 %30, 47
  br i1 %31, label %32, label %45

32:                                               ; preds = %18
  br label %33

33:                                               ; preds = %41, %32
  %34 = load ptr, ptr %3, align 8, !tbaa !11
  %35 = load i32, ptr %4, align 4, !tbaa !39
  %36 = sext i32 %35 to i64
  %37 = getelementptr inbounds i8, ptr %34, i64 %36
  %38 = load i8, ptr %37, align 1, !tbaa !57
  %39 = sext i8 %38 to i32
  %40 = icmp eq i32 %39, 47
  br i1 %40, label %41, label %44

41:                                               ; preds = %33
  %42 = load i32, ptr %4, align 4, !tbaa !39
  %43 = add nsw i32 %42, 1
  store i32 %43, ptr %4, align 4, !tbaa !39
  br label %33, !llvm.loop !161

44:                                               ; preds = %33
  br label %45

45:                                               ; preds = %44, %18
  br label %11, !llvm.loop !162

46:                                               ; preds = %11
  %47 = load ptr, ptr %3, align 8, !tbaa !11
  %48 = load i32, ptr %5, align 4, !tbaa !39
  %49 = sext i32 %48 to i64
  %50 = getelementptr inbounds i8, ptr %47, i64 %49
  store i8 0, ptr %50, align 1, !tbaa !57
  %51 = load ptr, ptr %3, align 8, !tbaa !11
  store ptr %51, ptr %2, align 8
  store i32 1, ptr %6, align 4
  br label %52

52:                                               ; preds = %46, %9
  call void @llvm.lifetime.end.p0(i64 4, ptr %5) #12
  call void @llvm.lifetime.end.p0(i64 4, ptr %4) #12
  %53 = load ptr, ptr %2, align 8
  ret ptr %53
}

; Function Attrs: nounwind uwtable
define internal ptr @find_name_gnu(ptr noundef %0, ptr noundef %1, i32 noundef %2) #0 {
  %4 = alloca ptr, align 8
  %5 = alloca ptr, align 8
  %6 = alloca ptr, align 8
  %7 = alloca i32, align 4
  %8 = alloca %struct.strbuf, align 8
  %9 = alloca ptr, align 8
  %10 = alloca i32, align 4
  store ptr %0, ptr %5, align 8, !tbaa !75
  store ptr %1, ptr %6, align 8, !tbaa !11
  store i32 %2, ptr %7, align 4, !tbaa !39
  call void @llvm.lifetime.start.p0(i64 24, ptr %8) #12
  call void @llvm.memcpy.p0.p0.i64(ptr align 8 %8, ptr align 8 @__const.find_name_gnu.name, i64 24, i1 false)
  call void @llvm.lifetime.start.p0(i64 8, ptr %9) #12
  %11 = load ptr, ptr %6, align 8, !tbaa !11
  %12 = call i32 @unquote_c_style(ptr noundef %8, ptr noundef %11, ptr noundef null)
  %13 = icmp ne i32 %12, 0
  br i1 %13, label %14, label %15

14:                                               ; preds = %3
  call void @strbuf_release(ptr noundef %8)
  store ptr null, ptr %4, align 8
  store i32 1, ptr %10, align 4
  br label %54

15:                                               ; preds = %3
  %16 = getelementptr inbounds nuw %struct.strbuf, ptr %8, i32 0, i32 2
  %17 = load ptr, ptr %16, align 8, !tbaa !82
  store ptr %17, ptr %9, align 8, !tbaa !11
  br label %18

18:                                               ; preds = %30, %15
  %19 = load i32, ptr %7, align 4, !tbaa !39
  %20 = icmp ne i32 %19, 0
  br i1 %20, label %21, label %33

21:                                               ; preds = %18
  %22 = load ptr, ptr %9, align 8, !tbaa !11
  %23 = call ptr @strchr(ptr noundef %22, i32 noundef 47) #11
  store ptr %23, ptr %9, align 8, !tbaa !11
  %24 = load ptr, ptr %9, align 8, !tbaa !11
  %25 = icmp ne ptr %24, null
  br i1 %25, label %27, label %26

26:                                               ; preds = %21
  call void @strbuf_release(ptr noundef %8)
  store ptr null, ptr %4, align 8
  store i32 1, ptr %10, align 4
  br label %54

27:                                               ; preds = %21
  %28 = load ptr, ptr %9, align 8, !tbaa !11
  %29 = getelementptr inbounds nuw i8, ptr %28, i32 1
  store ptr %29, ptr %9, align 8, !tbaa !11
  br label %30

30:                                               ; preds = %27
  %31 = load i32, ptr %7, align 4, !tbaa !39
  %32 = add nsw i32 %31, -1
  store i32 %32, ptr %7, align 4, !tbaa !39
  br label %18, !llvm.loop !159

33:                                               ; preds = %18
  %34 = load ptr, ptr %9, align 8, !tbaa !11
  %35 = getelementptr inbounds nuw %struct.strbuf, ptr %8, i32 0, i32 2
  %36 = load ptr, ptr %35, align 8, !tbaa !82
  %37 = ptrtoint ptr %34 to i64
  %38 = ptrtoint ptr %36 to i64
  %39 = sub i64 %37, %38
  call void @strbuf_remove(ptr noundef %8, i64 noundef 0, i64 noundef %39)
  %40 = load ptr, ptr %5, align 8, !tbaa !75
  %41 = getelementptr inbounds nuw %struct.strbuf, ptr %40, i32 0, i32 1
  %42 = load i64, ptr %41, align 8, !tbaa !81
  %43 = icmp ne i64 %42, 0
  br i1 %43, label %44, label %51

44:                                               ; preds = %33
  %45 = load ptr, ptr %5, align 8, !tbaa !75
  %46 = getelementptr inbounds nuw %struct.strbuf, ptr %45, i32 0, i32 2
  %47 = load ptr, ptr %46, align 8, !tbaa !82
  %48 = load ptr, ptr %5, align 8, !tbaa !75
  %49 = getelementptr inbounds nuw %struct.strbuf, ptr %48, i32 0, i32 1
  %50 = load i64, ptr %49, align 8, !tbaa !81
  call void @strbuf_insert(ptr noundef %8, i64 noundef 0, ptr noundef %47, i64 noundef %50)
  br label %51

51:                                               ; preds = %44, %33
  %52 = call ptr @strbuf_detach(ptr noundef %8, ptr noundef null)
  %53 = call ptr @squash_slash(ptr noundef %52)
  store ptr %53, ptr %4, align 8
  store i32 1, ptr %10, align 4
  br label %54

54:                                               ; preds = %51, %26, %14
  call void @llvm.lifetime.end.p0(i64 8, ptr %9) #12
  call void @llvm.lifetime.end.p0(i64 24, ptr %8) #12
  %55 = load ptr, ptr %4, align 8
  ret ptr %55
}