; Function Attrs: nounwind uwtable
define internal fastcc ptr @find_name_gnu(ptr noundef readonly captures(none) %0, ptr noundef %1, i32 noundef %2) unnamed_addr #0 {
  %4 = alloca %struct.strbuf, align 8
  call void @llvm.lifetime.start.p0(i64 24, ptr nonnull %4) #21
  call void @llvm.memcpy.p0.p0.i64(ptr noundef nonnull align 8 dereferenceable(24) %4, ptr noundef nonnull align 8 dereferenceable(24) @__const.show_stats.qname, i64 24, i1 false)
  %5 = call i32 @unquote_c_style(ptr noundef nonnull %4, ptr noundef %1, ptr noundef null) #21
  %.not = icmp eq i32 %5, 0
  br i1 %.not, label %7, label %6

6:                                                ; preds = %3
  call void @strbuf_release(ptr noundef nonnull %4) #21
  br label %squash_slash.exit

7:                                                ; preds = %3
  %8 = getelementptr inbounds nuw i8, ptr %4, i64 16
  %9 = load ptr, ptr %8, align 8, !tbaa !69
  %.not1418 = icmp eq i32 %2, 0
  br i1 %.not1418, label %._crit_edge, label %.lr.ph

.lr.ph:                                           ; preds = %7, %12
  %.020 = phi ptr [ %13, %12 ], [ %9, %7 ]
  %.01019 = phi i32 [ %14, %12 ], [ %2, %7 ]
  %10 = call ptr @strchr(ptr noundef nonnull dereferenceable(1) %.020, i32 noundef 47) #22
  %.not16 = icmp eq ptr %10, null
  br i1 %.not16, label %11, label %12

11:                                               ; preds = %.lr.ph
  call void @strbuf_release(ptr noundef nonnull %4) #21
  br label %squash_slash.exit

12:                                               ; preds = %.lr.ph
  %13 = getelementptr inbounds nuw i8, ptr %10, i64 1
  %14 = add nsw i32 %.01019, -1
  %.not14 = icmp eq i32 %14, 0
  br i1 %.not14, label %._crit_edge, label %.lr.ph, !llvm.loop !211

._crit_edge:                                      ; preds = %12, %7
  %.0.lcssa = phi ptr [ %9, %7 ], [ %13, %12 ]
  %15 = ptrtoint ptr %.0.lcssa to i64
  %16 = ptrtoint ptr %9 to i64
  %17 = sub i64 %15, %16
  call void @strbuf_remove(ptr noundef nonnull %4, i64 noundef 0, i64 noundef %17) #21
  %18 = getelementptr inbounds nuw i8, ptr %0, i64 8
  %19 = load i64, ptr %18, align 8, !tbaa !70
  %.not15 = icmp eq i64 %19, 0
  br i1 %.not15, label %23, label %20

20:                                               ; preds = %._crit_edge
  %21 = getelementptr inbounds nuw i8, ptr %0, i64 16
  %22 = load ptr, ptr %21, align 8, !tbaa !69
  call void @strbuf_insert(ptr noundef nonnull %4, i64 noundef 0, ptr noundef %22, i64 noundef %19) #21
  br label %23

23:                                               ; preds = %20, %._crit_edge
  %24 = call ptr @strbuf_detach(ptr noundef nonnull %4, ptr noundef null) #21
  %.not.i = icmp eq ptr %24, null
  br i1 %.not.i, label %squash_slash.exit, label %.preheader17.i

.preheader17.i:                                   ; preds = %23
  %25 = load i8, ptr %24, align 1, !tbaa !53
  %.not1618.i = icmp eq i8 %25, 0
  br i1 %.not1618.i, label %._crit_edge.i, label %.lr.ph.i

.lr.ph.i:                                         ; preds = %.preheader17.i, %.loopexit.i
  %indvars.iv22.i = phi i64 [ %indvars.iv.next23.i, %.loopexit.i ], [ 0, %.preheader17.i ]
  %26 = phi i8 [ %37, %.loopexit.i ], [ %25, %.preheader17.i ]
  %.01319.i = phi i32 [ %.1.i, %.loopexit.i ], [ 0, %.preheader17.i ]
  %27 = add i32 %.01319.i, 1
  %indvars.iv.next23.i = add nuw nsw i64 %indvars.iv22.i, 1
  %28 = getelementptr inbounds nuw i8, ptr %24, i64 %indvars.iv22.i
  store i8 %26, ptr %28, align 1, !tbaa !53
  %29 = icmp eq i8 %26, 47
  br i1 %29, label %.preheader.preheader.i, label %.loopexit.i

.preheader.preheader.i:                           ; preds = %.lr.ph.i
  %30 = sext i32 %27 to i64
  br label %.preheader.i

.preheader.i:                                     ; preds = %.preheader.i, %.preheader.preheader.i
  %indvars.iv.i = phi i64 [ %30, %.preheader.preheader.i ], [ %indvars.iv.next.i, %.preheader.i ]
  %31 = getelementptr inbounds i8, ptr %24, i64 %indvars.iv.i
  %32 = load i8, ptr %31, align 1, !tbaa !53
  %33 = icmp eq i8 %32, 47
  %indvars.iv.next.i = add nsw i64 %indvars.iv.i, 1
  br i1 %33, label %.preheader.i, label %.loopexit.loopexit.i, !llvm.loop !212

.loopexit.loopexit.i:                             ; preds = %.preheader.i
  %34 = trunc nsw i64 %indvars.iv.i to i32
  br label %.loopexit.i

.loopexit.i:                                      ; preds = %.loopexit.loopexit.i, %.lr.ph.i
  %.1.i = phi i32 [ %27, %.lr.ph.i ], [ %34, %.loopexit.loopexit.i ]
  %35 = sext i32 %.1.i to i64
  %36 = getelementptr inbounds i8, ptr %24, i64 %35
  %37 = load i8, ptr %36, align 1, !tbaa !53
  %.not16.i = icmp eq i8 %37, 0
  br i1 %.not16.i, label %._crit_edge.loopexit.i, label %.lr.ph.i, !llvm.loop !213

._crit_edge.loopexit.i:                           ; preds = %.loopexit.i
  %38 = and i64 %indvars.iv.next23.i, 4294967295
  br label %._crit_edge.i

._crit_edge.i:                                    ; preds = %._crit_edge.loopexit.i, %.preheader17.i
  %.0.lcssa.i = phi i64 [ 0, %.preheader17.i ], [ %38, %._crit_edge.loopexit.i ]
  %39 = getelementptr inbounds nuw i8, ptr %24, i64 %.0.lcssa.i
  store i8 0, ptr %39, align 1, !tbaa !53
  br label %squash_slash.exit

squash_slash.exit:                                ; preds = %._crit_edge.i, %23, %11, %6
  %.011 = phi ptr [ null, %6 ], [ null, %11 ], [ null, %23 ], [ %24, %._crit_edge.i ]
  call void @llvm.lifetime.end.p0(i64 24, ptr nonnull %4) #21
  ret ptr %.011
}